; Function Attrs: nounwind uwtable
define dso_local i64 @range_intersect_agg_transfn(ptr noundef %0) local_unnamed_addr #0 {
  %2 = alloca ptr, align 8
  call void @llvm.lifetime.start.p0(i64 8, ptr nonnull %2) #14
  %3 = call i32 @AggCheckCallContext(ptr noundef %0, ptr noundef nonnull %2) #14
  %.not = icmp eq i32 %3, 0
  br i1 %.not, label %4, label %7

4:                                                ; preds = %1
  %5 = call zeroext i1 @errstart_cold(i32 noundef 21, ptr noundef null) #16
  call void @llvm.assume(i1 %5)
  %6 = call i32 (ptr, ...) @errmsg_internal(ptr noundef nonnull @.str.6) #14
  call void @errfinish(ptr noundef nonnull @.str.1, i32 noundef 1228, ptr noundef nonnull @__func__.range_intersect_agg_transfn) #14
  unreachable

7:                                                ; preds = %1
  %8 = load ptr, ptr %0, align 8
  %9 = call i32 @get_fn_expr_argtype(ptr noundef %8, i32 noundef 1) #14
  %10 = call zeroext i1 @type_is_range(i32 noundef %9) #14
  br i1 %10, label %14, label %11

11:                                               ; preds = %7
  %12 = call zeroext i1 @errstart_cold(i32 noundef 21, ptr noundef null) #16
  call void @llvm.assume(i1 %12)
  %13 = call i32 (ptr, ...) @errmsg_internal(ptr noundef nonnull @.str.7) #14
  call void @errfinish(ptr noundef nonnull @.str.1, i32 noundef 1232, ptr noundef nonnull @__func__.range_intersect_agg_transfn) #14
  unreachable

14:                                               ; preds = %7
  %15 = load ptr, ptr %0, align 8
  %16 = getelementptr inbounds nuw i8, ptr %15, i64 24
  %17 = load ptr, ptr %16, align 8
  %18 = icmp eq ptr %17, null
  br i1 %18, label %21, label %19

19:                                               ; preds = %14
  %20 = load i32, ptr %17, align 8
  %.not.i = icmp eq i32 %20, %9
  br i1 %.not.i, label %range_get_typcache.exit, label %21

21:                                               ; preds = %19, %14
  %22 = call ptr @lookup_type_cache(i32 noundef %9, i32 noundef 2048) #14
  %23 = getelementptr inbounds nuw i8, ptr %22, i64 280
  %24 = load ptr, ptr %23, align 8
  %25 = icmp eq ptr %24, null
  br i1 %25, label %26, label %29

26:                                               ; preds = %21
  %27 = call zeroext i1 @errstart_cold(i32 noundef 21, ptr noundef null) #16
  call void @llvm.assume(i1 %27)
  %28 = call i32 (ptr, ...) @errmsg_internal(ptr noundef nonnull @.str.12, i32 noundef %9) #14
  call void @errfinish(ptr noundef nonnull @.str.1, i32 noundef 1712, ptr noundef nonnull @__func__.range_get_typcache) #14
  unreachable

29:                                               ; preds = %21
  %30 = load ptr, ptr %0, align 8
  %31 = getelementptr inbounds nuw i8, ptr %30, i64 24
  store ptr %22, ptr %31, align 8
  br label %range_get_typcache.exit

range_get_typcache.exit:                          ; preds = %19, %29
  %.0.i = phi ptr [ %22, %29 ], [ %17, %19 ]
  %32 = getelementptr inbounds nuw i8, ptr %0, i64 32
  %33 = load i64, ptr %32, align 8
  %34 = inttoptr i64 %33 to ptr
  %35 = call ptr @pg_detoast_datum(ptr noundef %34) #14
  %36 = getelementptr inbounds nuw i8, ptr %0, i64 48
  %37 = load i64, ptr %36, align 8
  %38 = inttoptr i64 %37 to ptr
  %39 = call ptr @pg_detoast_datum(ptr noundef %38) #14
  %40 = call ptr @range_intersect_internal(ptr noundef nonnull %.0.i, ptr noundef %35, ptr noundef %39)
  %41 = ptrtoint ptr %40 to i64
  call void @llvm.lifetime.end.p0(i64 8, ptr nonnull %2) #14
  ret i64 %41
}